target datalayout = "e-m:e-p270:32:32-p271:32:32-p272:64:64-i64:64-i128:128-f80:128-n8:16:32:64-S128"
target triple = "x86_64-pc-linux-gnu"

%struct.mbedtls_mpi = type { i32, i64, ptr }

; Function Attrs: mustprogress nounwind uwtable
define hidden noundef i32 @_Z22mbedtls_ct_mpi_uint_ltmm(i64 noundef %0, i64 noundef %1) #0 {
  %3 = alloca i64, align 8
  %4 = alloca i64, align 8
  %5 = alloca i64, align 8
  %6 = alloca i64, align 8
  store i64 %0, ptr %3, align 8, !tbaa !7
  store i64 %1, ptr %4, align 8, !tbaa !7
  call void @llvm.lifetime.start.p0(i64 8, ptr %5) #5
  call void @llvm.lifetime.start.p0(i64 8, ptr %6) #5
  %7 = load i64, ptr %3, align 8, !tbaa !7
  %8 = load i64, ptr %4, align 8, !tbaa !7
  %9 = xor i64 %7, %8
  store i64 %9, ptr %6, align 8, !tbaa !7
  %10 = load i64, ptr %3, align 8, !tbaa !7
  %11 = load i64, ptr %4, align 8, !tbaa !7
  %12 = sub i64 %10, %11
  %13 = load i64, ptr %6, align 8, !tbaa !7
  %14 = xor i64 %13, -1
  %15 = and i64 %12, %14
  store i64 %15, ptr %5, align 8, !tbaa !7
  %16 = load i64, ptr %4, align 8, !tbaa !7
  %17 = load i64, ptr %6, align 8, !tbaa !7
  %18 = and i64 %16, %17
  %19 = load i64, ptr %5, align 8, !tbaa !7
  %20 = or i64 %19, %18
  store i64 %20, ptr %5, align 8, !tbaa !7
  %21 = load i64, ptr %5, align 8, !tbaa !7
  %22 = lshr i64 %21, 63
  store i64 %22, ptr %5, align 8, !tbaa !7
  %23 = load i64, ptr %5, align 8, !tbaa !7
  %24 = trunc i64 %23 to i32
  call void @llvm.lifetime.end.p0(i64 8, ptr %6) #5
  call void @llvm.lifetime.end.p0(i64 8, ptr %5) #5
  ret i32 %24
}

; Function Attrs: mustprogress nounwind uwtable
define hidden i32 @mbedtls_mpi_lt_mpi_ct(ptr noundef %0, ptr noundef %1, ptr noundef %2) #0 {
  %4 = alloca i32, align 4
  %5 = alloca ptr, align 8
  %6 = alloca ptr, align 8
  %7 = alloca ptr, align 8
  %8 = alloca i64, align 8
  %9 = alloca i32, align 4
  %10 = alloca i32, align 4
  %11 = alloca i32, align 4
  %12 = alloca i32, align 4
  %13 = alloca i32, align 4
  store ptr %0, ptr %5, align 8, !tbaa !19
  store ptr %1, ptr %6, align 8, !tbaa !19
  store ptr %2, ptr %7, align 8, !tbaa !27
  call void @llvm.lifetime.start.p0(i64 8, ptr %8) #5
  call void @llvm.lifetime.start.p0(i64 4, ptr %9) #5
  call void @llvm.lifetime.start.p0(i64 4, ptr %10) #5
  call void @llvm.lifetime.start.p0(i64 4, ptr %11) #5
  call void @llvm.lifetime.start.p0(i64 4, ptr %12) #5
  br label %14

14:                                               ; preds = %3
  br label %15

15:                                               ; preds = %14
  br label %16

16:                                               ; preds = %15
  br label %17

17:                                               ; preds = %16
  br label %18

18:                                               ; preds = %17
  br label %19

19:                                               ; preds = %18
  br label %20

20:                                               ; preds = %19
  br label %21

21:                                               ; preds = %20
  br label %22

22:                                               ; preds = %21
  %23 = load ptr, ptr %5, align 8, !tbaa !19
  %24 = getelementptr inbounds nuw %struct.mbedtls_mpi, ptr %23, i32 0, i32 1
  %25 = load i64, ptr %24, align 8, !tbaa !21
  %26 = load ptr, ptr %6, align 8, !tbaa !19
  %27 = getelementptr inbounds nuw %struct.mbedtls_mpi, ptr %26, i32 0, i32 1
  %28 = load i64, ptr %27, align 8, !tbaa !21
  %29 = icmp ne i64 %25, %28
  br i1 %29, label %30, label %31

30:                                               ; preds = %22
  store i32 -4, ptr %4, align 4
  store i32 1, ptr %13, align 4
  br label %116

31:                                               ; preds = %22
  %32 = load ptr, ptr %5, align 8, !tbaa !19
  %33 = getelementptr inbounds nuw %struct.mbedtls_mpi, ptr %32, i32 0, i32 0
  %34 = load i32, ptr %33, align 8, !tbaa !23
  %35 = and i32 %34, 2
  %36 = ashr i32 %35, 1
  store i32 %36, ptr %11, align 4, !tbaa !14
  %37 = load ptr, ptr %6, align 8, !tbaa !19
  %38 = getelementptr inbounds nuw %struct.mbedtls_mpi, ptr %37, i32 0, i32 0
  %39 = load i32, ptr %38, align 8, !tbaa !23
  %40 = and i32 %39, 2
  %41 = ashr i32 %40, 1
  store i32 %41, ptr %12, align 4, !tbaa !14
  %42 = load i32, ptr %11, align 4, !tbaa !14
  %43 = load i32, ptr %12, align 4, !tbaa !14
  %44 = xor i32 %42, %43
  store i32 %44, ptr %9, align 4, !tbaa !14
  %45 = load i32, ptr %9, align 4, !tbaa !14
  %46 = load i32, ptr %11, align 4, !tbaa !14
  %47 = and i32 %45, %46
  %48 = load ptr, ptr %7, align 8, !tbaa !27
  store i32 %47, ptr %48, align 4, !tbaa !14
  %49 = load i32, ptr %9, align 4, !tbaa !14
  store i32 %49, ptr %10, align 4, !tbaa !14
  %50 = load ptr, ptr %5, align 8, !tbaa !19
  %51 = getelementptr inbounds nuw %struct.mbedtls_mpi, ptr %50, i32 0, i32 1
  %52 = load i64, ptr %51, align 8, !tbaa !21
  store i64 %52, ptr %8, align 8, !tbaa !7
  br label %53

53:                                               ; preds = %112, %31
  %54 = load i64, ptr %8, align 8, !tbaa !7
  %55 = icmp ugt i64 %54, 0
  br i1 %55, label %56, label %115

56:                                               ; preds = %53
  %57 = load ptr, ptr %6, align 8, !tbaa !19
  %58 = getelementptr inbounds nuw %struct.mbedtls_mpi, ptr %57, i32 0, i32 2
  %59 = load ptr, ptr %58, align 8, !tbaa !24
  %60 = load i64, ptr %8, align 8, !tbaa !7
  %61 = sub i64 %60, 1
  %62 = getelementptr inbounds nuw i64, ptr %59, i64 %61
  %63 = load i64, ptr %62, align 8, !tbaa !7
  %64 = load ptr, ptr %5, align 8, !tbaa !19
  %65 = getelementptr inbounds nuw %struct.mbedtls_mpi, ptr %64, i32 0, i32 2
  %66 = load ptr, ptr %65, align 8, !tbaa !24
  %67 = load i64, ptr %8, align 8, !tbaa !7
  %68 = sub i64 %67, 1
  %69 = getelementptr inbounds nuw i64, ptr %66, i64 %68
  %70 = load i64, ptr %69, align 8, !tbaa !7
  %71 = call noundef i32 @_Z22mbedtls_ct_mpi_uint_ltmm(i64 noundef %63, i64 noundef %70)
  store i32 %71, ptr %9, align 4, !tbaa !14
  %72 = load i32, ptr %9, align 4, !tbaa !14
  %73 = load i32, ptr %10, align 4, !tbaa !14
  %74 = sub i32 1, %73
  %75 = and i32 %72, %74
  %76 = load i32, ptr %11, align 4, !tbaa !14
  %77 = and i32 %75, %76
  %78 = load ptr, ptr %7, align 8, !tbaa !27
  %79 = load i32, ptr %78, align 4, !tbaa !14
  %80 = or i32 %79, %77
  store i32 %80, ptr %78, align 4, !tbaa !14
  %81 = load i32, ptr %9, align 4, !tbaa !14
  %82 = load i32, ptr %10, align 4, !tbaa !14
  %83 = or i32 %82, %81
  store i32 %83, ptr %10, align 4, !tbaa !14
  %84 = load ptr, ptr %5, align 8, !tbaa !19
  %85 = getelementptr inbounds nuw %struct.mbedtls_mpi, ptr %84, i32 0, i32 2
  %86 = load ptr, ptr %85, align 8, !tbaa !24
  %87 = load i64, ptr %8, align 8, !tbaa !7
  %88 = sub i64 %87, 1
  %89 = getelementptr inbounds nuw i64, ptr %86, i64 %88
  %90 = load i64, ptr %89, align 8, !tbaa !7
  %91 = load ptr, ptr %6, align 8, !tbaa !19
  %92 = getelementptr inbounds nuw %struct.mbedtls_mpi, ptr %91, i32 0, i32 2
  %93 = load ptr, ptr %92, align 8, !tbaa !24
  %94 = load i64, ptr %8, align 8, !tbaa !7
  %95 = sub i64 %94, 1
  %96 = getelementptr inbounds nuw i64, ptr %93, i64 %95
  %97 = load i64, ptr %96, align 8, !tbaa !7
  %98 = call noundef i32 @_Z22mbedtls_ct_mpi_uint_ltmm(i64 noundef %90, i64 noundef %97)
  store i32 %98, ptr %9, align 4, !tbaa !14
  %99 = load i32, ptr %9, align 4, !tbaa !14
  %100 = load i32, ptr %10, align 4, !tbaa !14
  %101 = sub i32 1, %100
  %102 = and i32 %99, %101
  %103 = load i32, ptr %11, align 4, !tbaa !14
  %104 = sub i32 1, %103
  %105 = and i32 %102, %104
  %106 = load ptr, ptr %7, align 8, !tbaa !27
  %107 = load i32, ptr %106, align 4, !tbaa !14
  %108 = or i32 %107, %105
  store i32 %108, ptr %106, align 4, !tbaa !14
  %109 = load i32, ptr %9, align 4, !tbaa !14
  %110 = load i32, ptr %10, align 4, !tbaa !14
  %111 = or i32 %110, %109
  store i32 %111, ptr %10, align 4, !tbaa !14
  br label %112

112:                                              ; preds = %56
  %113 = load i64, ptr %8, align 8, !tbaa !7
  %114 = add i64 %113, -1
  store i64 %114, ptr %8, align 8, !tbaa !7
  br label %53, !llvm.loop !29

115:                                              ; preds = %53
  store i32 0, ptr %4, align 4
  store i32 1, ptr %13, align 4
  br label %116

116:                                              ; preds = %115, %30
  call void @llvm.lifetime.end.p0(i64 4, ptr %12) #5
  call void @llvm.lifetime.end.p0(i64 4, ptr %11) #5
  call void @llvm.lifetime.end.p0(i64 4, ptr %10) #5
  call void @llvm.lifetime.end.p0(i64 4, ptr %9) #5
  call void @llvm.lifetime.end.p0(i64 8, ptr %8) #5
  %117 = load i32, ptr %4, align 4
  ret i32 %117
}