; Function Attrs: mustprogress nofree norecurse nosync nounwind memory(read, argmem: readwrite, inaccessiblemem: none) uwtable
define hidden range(i32 -4, 1) i32 @mbedtls_mpi_lt_mpi_ct(ptr noundef readonly captures(none) %0, ptr noundef readonly captures(none) %1, ptr noundef writeonly captures(none) %2) local_unnamed_addr #6 {
  %4 = getelementptr inbounds nuw i8, ptr %0, i64 8
  %5 = load i64, ptr %4, align 8, !tbaa !11
  %6 = getelementptr inbounds nuw i8, ptr %1, i64 8
  %7 = load i64, ptr %6, align 8, !tbaa !11
  %.not = icmp eq i64 %5, %7
  br i1 %.not, label %8, label %.loopexit

8:                                                ; preds = %3
  %9 = load i32, ptr %0, align 8, !tbaa !16
  %10 = lshr i32 %9, 1
  %11 = and i32 %10, 1
  %12 = load i32, ptr %1, align 8, !tbaa !16
  %13 = xor i32 %12, %9
  %14 = lshr i32 %13, 1
  %15 = and i32 %14, %11
  store i32 %15, ptr %2, align 4, !tbaa !20
  %.not3536 = icmp eq i64 %5, 0
  br i1 %.not3536, label %.loopexit, label %.lr.ph

.lr.ph:                                           ; preds = %8
  %16 = getelementptr inbounds nuw i8, ptr %1, i64 16
  %17 = load ptr, ptr %16, align 8, !tbaa !17
  %18 = getelementptr inbounds nuw i8, ptr %0, i64 16
  %19 = load ptr, ptr %18, align 8, !tbaa !17
  br label %20

20:                                               ; preds = %.lr.ph, %20
  %21 = phi i32 [ %15, %.lr.ph ], [ %48, %20 ]
  %.03338 = phi i64 [ %5, %.lr.ph ], [ %22, %20 ]
  %.03437 = phi i32 [ %14, %.lr.ph ], [ %49, %20 ]
  %22 = add i64 %.03338, -1
  %23 = getelementptr inbounds nuw i64, ptr %17, i64 %22
  %24 = load i64, ptr %23, align 8, !tbaa !8
  %25 = getelementptr inbounds nuw i64, ptr %19, i64 %22
  %26 = load i64, ptr %25, align 8, !tbaa !8
  %27 = xor i64 %26, %24
  %28 = sub i64 %24, %26
  %29 = xor i64 %27, -1
  %30 = and i64 %28, %29
  %31 = and i64 %27, %26
  %32 = or disjoint i64 %30, %31
  %33 = lshr i64 %32, 63
  %34 = trunc nuw nsw i64 %33 to i32
  %35 = xor i32 %.03437, -1
  %36 = and i32 %10, %35
  %37 = and i32 %36, %34
  %38 = or i32 %37, %21
  %39 = or i32 %.03437, %34
  %40 = sub i64 %26, %24
  %41 = and i64 %40, %29
  %42 = and i64 %27, %24
  %43 = or disjoint i64 %41, %42
  %44 = lshr i64 %43, 63
  %45 = trunc nuw nsw i64 %44 to i32
  %.demorgan = or i32 %39, %10
  %46 = xor i32 %.demorgan, -1
  %47 = and i32 %46, %45
  %48 = or i32 %38, %47
  %49 = or i32 %39, %45
  %.not35 = icmp eq i64 %22, 0
  br i1 %.not35, label %..loopexit_crit_edge, label %20, !llvm.loop !21

..loopexit_crit_edge:                             ; preds = %20
  store i32 %48, ptr %2, align 4, !tbaa !20
  br label %.loopexit

.loopexit:                                        ; preds = %8, %..loopexit_crit_edge, %3
  %.0 = phi i32 [ -4, %3 ], [ 0, %..loopexit_crit_edge ], [ 0, %8 ]
  ret i32 %.0
}